target datalayout = "e-m:e-p270:32:32-p271:32:32-p272:64:64-i64:64-i128:128-f80:128-n8:16:32:64-S128"
target triple = "x86_64-pc-linux-gnu"

%struct.bignum_st = type { ptr, i32, i32, i32, i32 }
%struct.ec_point_st = type { ptr, %struct.bignum_st, %struct.bignum_st, %struct.bignum_st }

@.str = private unnamed_addr constant [118 x i8] c"generated/home/dtcxzyw/WorkSpace/Projects/compilers/llvm-opt-benchmark/bench/libquic/libquic/boringssl/crypto/ec/ec.c\00", align 1

; Function Attrs: nounwind uwtable
define hidden i32 @EC_POINT_copy(ptr noundef %0, ptr noundef %1) #1 {
  %3 = alloca i32, align 4
  %4 = alloca ptr, align 8
  %5 = alloca ptr, align 8
  store ptr %0, ptr %4, align 8, !tbaa !29
  store ptr %1, ptr %5, align 8, !tbaa !29
  %6 = load ptr, ptr %4, align 8, !tbaa !29
  %7 = getelementptr inbounds nuw %struct.ec_point_st, ptr %6, i32 0, i32 0
  %8 = load ptr, ptr %7, align 8, !tbaa !31
  %9 = load ptr, ptr %5, align 8, !tbaa !29
  %10 = getelementptr inbounds nuw %struct.ec_point_st, ptr %9, i32 0, i32 0
  %11 = load ptr, ptr %10, align 8, !tbaa !31
  %12 = icmp ne ptr %8, %11
  br i1 %12, label %13, label %14

13:                                               ; preds = %2
  call void @ERR_put_error(i32 noundef 15, i32 noundef 0, i32 noundef 106, ptr noundef @.str, i32 noundef 723)
  store i32 0, ptr %3, align 4
  br label %23

14:                                               ; preds = %2
  %15 = load ptr, ptr %4, align 8, !tbaa !29
  %16 = load ptr, ptr %5, align 8, !tbaa !29
  %17 = icmp eq ptr %15, %16
  br i1 %17, label %18, label %19

18:                                               ; preds = %14
  store i32 1, ptr %3, align 4
  br label %23

19:                                               ; preds = %14
  %20 = load ptr, ptr %4, align 8, !tbaa !29
  %21 = load ptr, ptr %5, align 8, !tbaa !29
  %22 = call i32 @ec_GFp_simple_point_copy(ptr noundef %20, ptr noundef %21)
  store i32 %22, ptr %3, align 4
  br label %23

23:                                               ; preds = %19, %18, %13
  %24 = load i32, ptr %3, align 4
  ret i32 %24
}